; Function Attrs: nounwind uwtable
define hidden noalias ptr @HIDAPI_GetDeviceManufacturerName(i16 noundef zeroext %0, i16 noundef zeroext %1) local_unnamed_addr #0 {
  tail call void @SDL_LockJoysticks_REAL() #9
  %.0812 = load ptr, ptr @SDL_HIDAPI_devices, align 8
  %.not13 = icmp eq ptr %.0812, null
  br i1 %.not13, label %.loopexit, label %.lr.ph

.lr.ph:                                           ; preds = %2, %15
  %.0814 = phi ptr [ %.08, %15 ], [ %.0812, %2 ]
  %3 = getelementptr inbounds nuw i8, ptr %.0814, i64 32
  %4 = load i16, ptr %3, align 8
  %5 = icmp eq i16 %0, %4
  br i1 %5, label %6, label %15

6:                                                ; preds = %.lr.ph
  %7 = getelementptr inbounds nuw i8, ptr %.0814, i64 34
  %8 = load i16, ptr %7, align 2
  %9 = icmp eq i16 %1, %8
  br i1 %9, label %10, label %15

10:                                               ; preds = %6
  %11 = getelementptr inbounds nuw i8, ptr %.0814, i64 8
  %12 = load ptr, ptr %11, align 8
  %.not10 = icmp eq ptr %12, null
  br i1 %.not10, label %.loopexit, label %13

13:                                               ; preds = %10
  %14 = tail call noalias ptr @SDL_strdup_REAL(ptr noundef nonnull %12) #9
  br label %.loopexit

15:                                               ; preds = %.lr.ph, %6
  %16 = getelementptr inbounds nuw i8, ptr %.0814, i64 184
  %.08 = load ptr, ptr %16, align 8
  %.not = icmp eq ptr %.08, null
  br i1 %.not, label %.loopexit, label %.lr.ph, !llvm.loop !33

.loopexit:                                        ; preds = %15, %2, %10, %13
  %.0 = phi ptr [ %14, %13 ], [ null, %10 ], [ null, %2 ], [ null, %15 ]
  tail call void @SDL_UnlockJoysticks_REAL() #9
  ret ptr %.0
}